(lp1
(F1275406426.3797791
(dp2
S'button'
p3
I0
sS'pressed'
p4
I00
sS'key'
p5
I0
sS'y'
I448
sS'x'
I601
sS'type'
p6
I6
stp7
a(F1275406426.47808
(dp8
g3
I0
sg4
I00
sg5
I0
sS'y'
I449
sS'x'
I602
sg6
I6
stp9
a(F1275406426.4907701
(dp10
g3
I0
sg4
I00
sg5
I0
sS'y'
I449
sS'x'
I603
sg6
I6
stp11
a(F1275406426.508848
(dp12
g3
I0
sg4
I00
sg5
I0
sS'y'
I449
sS'x'
I604
sg6
I6
stp13
a(F1275406426.522392
(dp14
g3
I0
sg4
I00
sg5
I0
sS'y'
I450
sS'x'
I606
sg6
I6
stp15
a(F1275406426.531723
(dp16
g3
I0
sg4
I00
sg5
I0
sS'y'
I450
sS'x'
I608
sg6
I6
stp17
a(F1275406426.5444739
(dp18
g3
I0
sg4
I00
sg5
I0
sS'y'
I450
sS'x'
I610
sg6
I6
stp19
a(F1275406426.5539949
(dp20
g3
I0
sg4
I00
sg5
I0
sS'y'
I451
sS'x'
I612
sg6
I6
stp21
a(F1275406426.5673881
(dp22
g3
I0
sg4
I00
sg5
I0
sS'y'
I451
sS'x'
I613
sg6
I6
stp23
a(F1275406426.5831311
(dp24
g3
I0
sg4
I00
sg5
I0
sS'y'
I451
sS'x'
I614
sg6
I6
stp25
a(F1275406426.6040201
(dp26
g3
I0
sg4
I00
sg5
I0
sS'y'
I452
sS'x'
I616
sg6
I6
stp27
a(F1275406426.616065
(dp28
g3
I0
sg4
I00
sg5
I0
sS'y'
I452
sS'x'
I618
sg6
I6
stp29
a(F1275406426.6305921
(dp30
g3
I0
sg4
I00
sg5
I0
sS'y'
I452
sS'x'
I619
sg6
I6
stp31
a(F1275406426.644207
(dp32
g3
I0
sg4
I00
sg5
I0
sS'y'
I453
sS'x'
I619
sg6
I6
stp33
a(F1275406426.6504531
(dp34
g3
I0
sg4
I00
sg5
I0
sS'y'
I453
sS'x'
I620
sg6
I6
stp35
a(F1275406426.679162
(dp36
g3
I0
sg4
I00
sg5
I0
sS'y'
I455
sS'x'
I621
sg6
I6
stp37
a(F1275406426.6905291
(dp38
g3
I0
sg4
I00
sg5
I0
sS'y'
I456
sS'x'
I621
sg6
I6
stp39
a(F1275406426.7043769
(dp40
g3
I0
sg4
I00
sg5
I0
sS'y'
I459
sS'x'
I622
sg6
I6
stp41
a(F1275406426.71398
(dp42
g3
I0
sg4
I00
sg5
I0
sS'y'
I461
sS'x'
I622
sg6
I6
stp43
a(F1275406426.731617
(dp44
g3
I0
sg4
I00
sg5
I0
sS'y'
I464
sS'x'
I621
sg6
I6
stp45
a(F1275406426.7369039
(dp46
g3
I0
sg4
I00
sg5
I0
sS'y'
I467
sS'x'
I620
sg6
I6
stp47
a(F1275406426.7506759
(dp48
g3
I0
sg4
I00
sg5
I0
sS'y'
I470
sS'x'
I619
sg6
I6
stp49
a(F1275406426.760447
(dp50
g3
I0
sg4
I00
sg5
I0
sS'y'
I474
sS'x'
I617
sg6
I6
stp51
a(F1275406426.7725689
(dp52
g3
I0
sg4
I00
sg5
I0
sS'y'
I478
sS'x'
I615
sg6
I6
stp53
a(F1275406426.7849331
(dp54
g3
I0
sg4
I00
sg5
I0
sS'y'
I481
sS'x'
I613
sg6
I6
stp55
a(F1275406426.795949
(dp56
g3
I0
sg4
I00
sg5
I0
sS'y'
I484
sS'x'
I610
sg6
I6
stp57
a(F1275406426.8074491
(dp58
g3
I0
sg4
I00
sg5
I0
sS'y'
I487
sS'x'
I608
sg6
I6
stp59
a(F1275406426.8191831
(dp60
g3
I0
sg4
I00
sg5
I0
sS'y'
I490
sS'x'
I605
sg6
I6
stp61
a(F1275406426.8307149
(dp62
g3
I0
sg4
I00
sg5
I0
sS'y'
I494
sS'x'
I601
sg6
I6
stp63
a(F1275406426.846148
(dp64
g3
I0
sg4
I00
sg5
I0
sS'y'
I497
sS'x'
I597
sg6
I6
stp65
a(F1275406426.8540399
(dp66
g3
I0
sg4
I00
sg5
I0
sS'y'
I500
sS'x'
I593
sg6
I6
stp67
a(F1275406426.865736
(dp68
g3
I0
sg4
I00
sg5
I0
sS'y'
I502
sS'x'
I590
sg6
I6
stp69
a(F1275406426.877516
(dp70
g3
I0
sg4
I00
sg5
I0
sS'y'
I503
sS'x'
I586
sg6
I6
stp71
a(F1275406426.888684
(dp72
g3
I0
sg4
I00
sg5
I0
sS'y'
I504
sS'x'
I583
sg6
I6
stp73
a(F1275406426.904093
(dp74
g3
I0
sg4
I00
sg5
I0
sS'y'
I505
sS'x'
I579
sg6
I6
stp75
a(F1275406426.9123981
(dp76
g3
I0
sg4
I00
sg5
I0
sS'y'
I505
sS'x'
I574
sg6
I6
stp77
a(F1275406426.92472
(dp78
g3
I0
sg4
I00
sg5
I0
sS'y'
I503
sS'x'
I567
sg6
I6
stp79
a(F1275406426.9366701
(dp80
g3
I0
sg4
I00
sg5
I0
sS'y'
I502
sS'x'
I561
sg6
I6
stp81
a(F1275406426.948544
(dp82
g3
I0
sg4
I00
sg5
I0
sS'y'
I500
sS'x'
I555
sg6
I6
stp83
a(F1275406426.9621689
(dp84
g3
I0
sg4
I00
sg5
I0
sS'y'
I497
sS'x'
I546
sg6
I6
stp85
a(F1275406426.9709129
(dp86
g3
I0
sg4
I00
sg5
I0
sS'y'
I492
sS'x'
I535
sg6
I6
stp87
a(F1275406426.9876959
(dp88
g3
I0
sg4
I00
sg5
I0
sS'y'
I486
sS'x'
I524
sg6
I6
stp89
a(F1275406426.994714
(dp90
g3
I0
sg4
I00
sg5
I0
sS'y'
I481
sS'x'
I517
sg6
I6
stp91
a(F1275406427.006099
(dp92
g3
I0
sg4
I00
sg5
I0
sS'y'
I476
sS'x'
I510
sg6
I6
stp93
a(F1275406427.0217309
(dp94
g3
I0
sg4
I00
sg5
I0
sS'y'
I471
sS'x'
I503
sg6
I6
stp95
a(F1275406427.031666
(dp96
g3
I0
sg4
I00
sg5
I0
sS'y'
I464
sS'x'
I496
sg6
I6
stp97
a(F1275406427.0422921
(dp98
g3
I0
sg4
I00
sg5
I0
sS'y'
I457
sS'x'
I489
sg6
I6
stp99
a(F1275406427.0536439
(dp100
g3
I0
sg4
I00
sg5
I0
sS'y'
I447
sS'x'
I482
sg6
I6
stp101
a(F1275406427.0660739
(dp102
g3
I0
sg4
I00
sg5
I0
sS'y'
I437
sS'x'
I478
sg6
I6
stp103
a(F1275406427.0786531
(dp104
g3
I0
sg4
I00
sg5
I0
sS'y'
I431
sS'x'
I478
sg6
I6
stp105
a(F1275406427.089071
(dp106
g3
I0
sg4
I00
sg5
I0
sS'y'
I419
sS'x'
I480
sg6
I6
stp107
a(F1275406427.1041291
(dp108
g3
I0
sg4
I00
sg5
I0
sS'y'
I405
sS'x'
I484
sg6
I6
stp109
a(F1275406427.113389
(dp110
g3
I0
sg4
I00
sg5
I0
sS'y'
I390
sS'x'
I490
sg6
I6
stp111
a(F1275406427.1245861
(dp112
g3
I0
sg4
I00
sg5
I0
sS'y'
I378
sS'x'
I498
sg6
I6
stp113
a(F1275406427.13925
(dp114
g3
I0
sg4
I00
sg5
I0
sS'y'
I369
sS'x'
I506
sg6
I6
stp115
a(F1275406427.154707
(dp116
g3
I0
sg4
I00
sg5
I0
sS'y'
I361
sS'x'
I513
sg6
I6
stp117
a(F1275406427.16768
(dp118
g3
I0
sg4
I00
sg5
I0
sS'y'
I354
sS'x'
I520
sg6
I6
stp119
a(F1275406427.1954031
(dp120
g3
I0
sg4
I00
sg5
I0
sS'y'
I345
sS'x'
I537
sg6
I6
stp121
a(F1275406427.2050271
(dp122
g3
I0
sg4
I00
sg5
I0
sS'y'
I337
sS'x'
I553
sg6
I6
stp123
a(F1275406427.2168059
(dp124
g3
I0
sg4
I00
sg5
I0
sS'y'
I331
sS'x'
I566
sg6
I6
stp125
a(F1275406427.2286601
(dp126
g3
I0
sg4
I00
sg5
I0
sS'y'
I327
sS'x'
I576
sg6
I6
stp127
a(F1275406427.2405541
(dp128
g3
I0
sg4
I00
sg5
I0
sS'y'
I325
sS'x'
I584
sg6
I6
stp129
a(F1275406427.2531209
(dp130
g3
I0
sg4
I00
sg5
I0
sS'y'
I323
sS'x'
I593
sg6
I6
stp131
a(F1275406427.265965
(dp132
g3
I0
sg4
I00
sg5
I0
sS'y'
I323
sS'x'
I594
sg6
I6
stp133
a(F1275406427.283216
(dp134
g3
I0
sg4
I00
sg5
I0
sS'y'
I323
sS'x'
I597
sg6
I6
stp135
a(F1275406427.29496
(dp136
g3
I0
sg4
I00
sg5
I0
sS'y'
I324
sS'x'
I600
sg6
I6
stp137
a(F1275406427.306999
(dp138
g3
I0
sg4
I00
sg5
I0
sS'y'
I325
sS'x'
I601
sg6
I6
stp139
a(F1275406427.326725
(dp140
g3
I0
sg4
I00
sg5
I0
sS'y'
I327
sS'x'
I603
sg6
I6
stp141
a(F1275406427.339515
(dp142
g3
I0
sg4
I00
sg5
I0
sS'y'
I332
sS'x'
I606
sg6
I6
stp143
a(F1275406427.3502941
(dp144
g3
I0
sg4
I00
sg5
I0
sS'y'
I337
sS'x'
I608
sg6
I6
stp145
a(F1275406427.361994
(dp146
g3
I0
sg4
I00
sg5
I0
sS'y'
I342
sS'x'
I609
sg6
I6
stp147
a(F1275406427.3740709
(dp148
g3
I0
sg4
I00
sg5
I0
sS'y'
I349
sS'x'
I610
sg6
I6
stp149
a(F1275406427.3871579
(dp150
g3
I0
sg4
I00
sg5
I0
sS'y'
I356
sS'x'
I611
sg6
I6
stp151
a(F1275406427.3978469
(dp152
g3
I0
sg4
I00
sg5
I0
sS'y'
I368
sS'x'
I611
sg6
I6
stp153
a(F1275406427.4111731
(dp154
g3
I0
sg4
I00
sg5
I0
sS'y'
I380
sS'x'
I611
sg6
I6
stp155
a(F1275406427.4229169
(dp156
g3
I0
sg4
I00
sg5
I0
sS'y'
I391
sS'x'
I610
sg6
I6
stp157
a(F1275406427.4365001
(dp158
g3
I0
sg4
I00
sg5
I0
sS'y'
I402
sS'x'
I608
sg6
I6
stp159
a(F1275406427.4466331
(dp160
g3
I0
sg4
I00
sg5
I0
sS'y'
I413
sS'x'
I606
sg6
I6
stp161
a(F1275406427.4586639
(dp162
g3
I0
sg4
I00
sg5
I0
sS'y'
I426
sS'x'
I604
sg6
I6
stp163
a(F1275406427.4709771
(dp164
g3
I0
sg4
I00
sg5
I0
sS'y'
I441
sS'x'
I598
sg6
I6
stp165
a(F1275406427.481833
(dp166
g3
I0
sg4
I00
sg5
I0
sS'y'
I454
sS'x'
I593
sg6
I6
stp167
a(F1275406427.4958379
(dp168
g3
I0
sg4
I00
sg5
I0
sS'y'
I462
sS'x'
I589
sg6
I6
stp169
a(F1275406427.505343
(dp170
g3
I0
sg4
I00
sg5
I0
sS'y'
I469
sS'x'
I584
sg6
I6
stp171
a(F1275406427.516258
(dp172
g3
I0
sg4
I00
sg5
I0
sS'y'
I477
sS'x'
I581
sg6
I6
stp173
a(F1275406427.528892
(dp174
g3
I0
sg4
I00
sg5
I0
sS'y'
I485
sS'x'
I578
sg6
I6
stp175
a(F1275406427.539964
(dp176
g3
I0
sg4
I00
sg5
I0
sS'y'
I493
sS'x'
I573
sg6
I6
stp177
a(F1275406427.557333
(dp178
g3
I0
sg4
I00
sg5
I0
sS'y'
I500
sS'x'
I568
sg6
I6
stp179
a(F1275406427.563518
(dp180
g3
I0
sg4
I00
sg5
I0
sS'y'
I500
sS'x'
I567
sg6
I6
stp181
a(F1275406427.576062
(dp182
g3
I0
sg4
I00
sg5
I0
sS'y'
I501
sS'x'
I567
sg6
I6
stp183
a(F1275406427.6031859
(dp184
g3
I0
sg4
I00
sg5
I0
sS'y'
I501
sS'x'
I566
sg6
I6
stp185
a(F1275406427.61588
(dp186
g3
I0
sg4
I00
sg5
I0
sS'y'
I501
sS'x'
I563
sg6
I6
stp187
a(F1275406427.6270721
(dp188
g3
I0
sg4
I00
sg5
I0
sS'y'
I500
sS'x'
I560
sg6
I6
stp189
a(F1275406427.638586
(dp190
g3
I0
sg4
I00
sg5
I0
sS'y'
I499
sS'x'
I557
sg6
I6
stp191
a(F1275406427.6500139
(dp192
g3
I0
sg4
I00
sg5
I0
sS'y'
I498
sS'x'
I556
sg6
I6
stp193
a(F1275406427.682997
(dp194
g3
I0
sg4
I00
sg5
I0
sS'y'
I496
sS'x'
I554
sg6
I6
stp195
a(F1275406427.6941061
(dp196
g3
I0
sg4
I00
sg5
I0
sS'y'
I497
sS'x'
I555
sg6
I6
stp197
a.